; Function Attrs: mustprogress nounwind uwtable
define dso_local void @_ZN3net15QuicCryptoProofD2Ev(ptr noundef nonnull align 8 dereferenceable(112) %this) unnamed_addr #4 align 2 personality ptr @__gxx_personality_v0 {
entry:
  %primary_scid = getelementptr inbounds i8, ptr %this, i64 80
  tail call void @_ZNSt7__cxx1112basic_stringIcSt11char_traitsIcESaIcEED1Ev(ptr noundef nonnull align 8 dereferenceable(32) %primary_scid) #20
  %config = getelementptr inbounds i8, ptr %this, i64 72
  %0 = load ptr, ptr %config, align 8
  %tobool.not.i = icmp eq ptr %0, null
  br i1 %tobool.not.i, label %_ZN13scoped_refptrIN3net22QuicCryptoServerConfig6ConfigEED2Ev.exit, label %if.then.i

if.then.i:                                        ; preds = %entry
  %add.ptr.i.i = getelementptr inbounds i8, ptr %0, i64 88
  %1 = load i32, ptr %add.ptr.i.i, align 4
  %dec.i.i.i.i = add nsw i32 %1, -1
  store i32 %dec.i.i.i.i, ptr %add.ptr.i.i, align 4
  %cmp.i.i.i.i = icmp eq i32 %dec.i.i.i.i, 0
  br i1 %cmp.i.i.i.i, label %delete.notnull.i.i.i, label %_ZN13scoped_refptrIN3net22QuicCryptoServerConfig6ConfigEED2Ev.exit

delete.notnull.i.i.i:                             ; preds = %if.then.i
  %vtable.i.i.i = load ptr, ptr %0, align 8
  %vfn.i.i.i = getelementptr inbounds i8, ptr %vtable.i.i.i, i64 8
  %2 = load ptr, ptr %vfn.i.i.i, align 8
  tail call void %2(ptr noundef nonnull align 8 dereferenceable(288) %0) #20
  br label %_ZN13scoped_refptrIN3net22QuicCryptoServerConfig6ConfigEED2Ev.exit

_ZN13scoped_refptrIN3net22QuicCryptoServerConfig6ConfigEED2Ev.exit: ; preds = %entry, %if.then.i, %delete.notnull.i.i.i
  %cert_sct = getelementptr inbounds i8, ptr %this, i64 40
  tail call void @_ZNSt7__cxx1112basic_stringIcSt11char_traitsIcESaIcEED1Ev(ptr noundef nonnull align 8 dereferenceable(32) %cert_sct) #20
  %chain = getelementptr inbounds i8, ptr %this, i64 32
  %3 = load ptr, ptr %chain, align 8
  %tobool.not.i1 = icmp eq ptr %3, null
  br i1 %tobool.not.i1, label %_ZN13scoped_refptrIN3net11ProofSource5ChainEED2Ev.exit, label %if.then.i2

if.then.i2:                                       ; preds = %_ZN13scoped_refptrIN3net22QuicCryptoServerConfig6ConfigEED2Ev.exit
  %add.ptr.i.i3 = getelementptr inbounds i8, ptr %3, i64 8
  %4 = load i32, ptr %add.ptr.i.i3, align 4
  %dec.i.i.i.i4 = add nsw i32 %4, -1
  store i32 %dec.i.i.i.i4, ptr %add.ptr.i.i3, align 4
  %cmp.i.i.i.i5 = icmp eq i32 %dec.i.i.i.i4, 0
  br i1 %cmp.i.i.i.i5, label %delete.notnull.i.i.i6, label %_ZN13scoped_refptrIN3net11ProofSource5ChainEED2Ev.exit

delete.notnull.i.i.i6:                            ; preds = %if.then.i2
  %vtable.i.i.i7 = load ptr, ptr %3, align 8
  %vfn.i.i.i8 = getelementptr inbounds i8, ptr %vtable.i.i.i7, i64 8
  %5 = load ptr, ptr %vfn.i.i.i8, align 8
  tail call void %5(ptr noundef nonnull align 8 dereferenceable(40) %3) #20
  br label %_ZN13scoped_refptrIN3net11ProofSource5ChainEED2Ev.exit

_ZN13scoped_refptrIN3net11ProofSource5ChainEED2Ev.exit: ; preds = %_ZN13scoped_refptrIN3net22QuicCryptoServerConfig6ConfigEED2Ev.exit, %if.then.i2, %delete.notnull.i.i.i6
  tail call void @_ZNSt7__cxx1112basic_stringIcSt11char_traitsIcESaIcEED1Ev(ptr noundef nonnull align 8 dereferenceable(32) %this) #20
  ret void
}